target datalayout = "e-m:e-p270:32:32-p271:32:32-p272:64:64-i64:64-i128:128-f80:128-n8:16:32:64-S128"
target triple = "x86_64-pc-linux-gnu"

%"struct.rocksdb::ReadOptions" = type { ptr, ptr, ptr, %"class.std::chrono::duration", %"class.std::chrono::duration", i32, i32, i64, %"class.std::optional", i8, i8, i8, i8, i8, i64, i64, ptr, ptr, i8, i8, i8, i8, i8, i8, i8, i8, %"class.std::function.158", i8, i8, i8, i8, i64 }
%"class.std::chrono::duration" = type { i64 }
%"class.std::optional" = type { %"struct.std::_Optional_base" }
%"struct.std::_Optional_base" = type { %"struct.std::_Optional_payload" }
%"struct.std::_Optional_payload" = type { %"struct.std::_Optional_payload_base.base", [7 x i8] }
%"struct.std::_Optional_payload_base.base" = type <{ %"union.std::_Optional_payload_base<unsigned long>::_Storage", i8 }>
%"union.std::_Optional_payload_base<unsigned long>::_Storage" = type { i64 }
%"class.std::function.158" = type { %"class.std::_Function_base", ptr }
%"class.std::_Function_base" = type { %"union.std::_Any_data", ptr }
%"union.std::_Any_data" = type { %"union.std::_Nocopy_types" }
%"union.std::_Nocopy_types" = type { { i64, i64 } }
%"class.rocksdb::WritePreparedTxnReadCallback" = type <{ %"class.rocksdb::ReadCallback", ptr, i8, i8, i8, [5 x i8] }>
%"class.rocksdb::ReadCallback" = type { ptr, i64, i64 }
%"struct.std::_Rb_tree_header" = type { %"struct.std::_Rb_tree_node_base", i64 }
%"struct.std::_Rb_tree_node_base" = type { i32, ptr, ptr, ptr }
%"class.rocksdb::WriteBatch::Handler" = type { ptr }
%"class.std::map.466" = type { %"class.std::_Rb_tree.467" }
%"class.std::_Rb_tree.467" = type { %"struct.std::_Rb_tree<unsigned int, std::pair<const unsigned int, std::set<rocksdb::Slice, rocksdb::SetComparator>>, std::_Select1st<std::pair<const unsigned int, std::set<rocksdb::Slice, rocksdb::SetComparator>>>, std::less<unsigned int>>::_Rb_tree_impl" }
%"struct.std::_Rb_tree<unsigned int, std::pair<const unsigned int, std::set<rocksdb::Slice, rocksdb::SetComparator>>, std::_Select1st<std::pair<const unsigned int, std::set<rocksdb::Slice, rocksdb::SetComparator>>>, std::less<unsigned int>>::_Rb_tree_impl" = type { [8 x i8], %"struct.std::_Rb_tree_header" }
%struct.RollbackWriteBatchBuilder = type { %"class.rocksdb::WriteBatch::Handler", ptr, ptr, %"class.rocksdb::WritePreparedTxnReadCallback", ptr, ptr, ptr, %"class.std::map.466", i8, %"struct.rocksdb::ReadOptions" }

; Function Attrs: mustprogress nounwind uwtable
define linkonce_odr noundef ptr @_ZNKSt8_Rb_treeIjSt4pairIKjSt3setIN7rocksdb5SliceENS3_13SetComparatorESaIS4_EEESt10_Select1stIS8_ESt4lessIjESaIS8_EE9_M_mbeginEv(ptr noundef nonnull align 8 dereferenceable(48) %0) #3 comdat align 2 {
  %2 = alloca ptr, align 8
  store ptr %0, ptr %2, align 8, !tbaa !724
  %3 = load ptr, ptr %2, align 8
  %4 = getelementptr inbounds nuw %"class.std::_Rb_tree.467", ptr %3, i32 0, i32 0
  %5 = getelementptr inbounds i8, ptr %4, i64 8
  %6 = getelementptr inbounds nuw %"struct.std::_Rb_tree_header", ptr %5, i32 0, i32 0
  %7 = getelementptr inbounds nuw %"struct.std::_Rb_tree_node_base", ptr %6, i32 0, i32 1
  %8 = load ptr, ptr %7, align 8, !tbaa !584
  ret ptr %8
}

; Function Attrs: mustprogress nounwind uwtable
define linkonce_odr void @_ZNSt15__new_allocatorISt13_Rb_tree_nodeISt4pairIKjSt3setIN7rocksdb5SliceENS4_13SetComparatorESaIS5_EEEEED2Ev(ptr noundef nonnull align 1 dereferenceable(1) %0) unnamed_addr #3 comdat align 2 {
  %2 = alloca ptr, align 8
  store ptr %0, ptr %2, align 8, !tbaa !735
  ret void
}

; Function Attrs: mustprogress nounwind uwtable
define linkonce_odr noundef ptr @_ZNSt8_Rb_treeIjSt4pairIKjSt3setIN7rocksdb5SliceENS3_13SetComparatorESaIS4_EEESt10_Select1stIS8_ESt4lessIjESaIS8_EE8_M_beginEv(ptr noundef nonnull align 8 dereferenceable(48) %0) #3 comdat align 2 {
  %2 = alloca ptr, align 8
  store ptr %0, ptr %2, align 8, !tbaa !724
  %3 = load ptr, ptr %2, align 8
  %4 = call noundef ptr @_ZNKSt8_Rb_treeIjSt4pairIKjSt3setIN7rocksdb5SliceENS3_13SetComparatorESaIS4_EEESt10_Select1stIS8_ESt4lessIjESaIS8_EE9_M_mbeginEv(ptr noundef nonnull align 8 dereferenceable(48) %3) #4
  ret ptr %4
}

; Function Attrs: mustprogress nounwind uwtable
define linkonce_odr void @_ZN7rocksdb12ReadCallbackD2Ev(ptr noundef nonnull align 8 dereferenceable(24) %0) unnamed_addr #3 comdat align 2 {
  %2 = alloca ptr, align 8
  store ptr %0, ptr %2, align 8, !tbaa !246
  ret void
}

; Function Attrs: mustprogress nounwind uwtable
define linkonce_odr void @_ZNSt8_Rb_treeIjSt4pairIKjSt3setIN7rocksdb5SliceENS3_13SetComparatorESaIS4_EEESt10_Select1stIS8_ESt4lessIjESaIS8_EED2Ev(ptr noundef nonnull align 8 dereferenceable(48) %0) unnamed_addr #3 comdat align 2 personality ptr @__gxx_personality_v0 {
  %2 = alloca ptr, align 8
  store ptr %0, ptr %2, align 8, !tbaa !724
  %3 = load ptr, ptr %2, align 8
  %4 = call noundef ptr @_ZNSt8_Rb_treeIjSt4pairIKjSt3setIN7rocksdb5SliceENS3_13SetComparatorESaIS4_EEESt10_Select1stIS8_ESt4lessIjESaIS8_EE8_M_beginEv(ptr noundef nonnull align 8 dereferenceable(48) %3) #4
  invoke void @_ZNSt8_Rb_treeIjSt4pairIKjSt3setIN7rocksdb5SliceENS3_13SetComparatorESaIS4_EEESt10_Select1stIS8_ESt4lessIjESaIS8_EE8_M_eraseEPSt13_Rb_tree_nodeIS8_E(ptr noundef nonnull align 8 dereferenceable(48) %3, ptr noundef %4)
          to label %5 unwind label %7

5:                                                ; preds = %1
  %6 = getelementptr inbounds nuw %"class.std::_Rb_tree.467", ptr %3, i32 0, i32 0
  call void @_ZNSt15__new_allocatorISt13_Rb_tree_nodeISt4pairIKjSt3setIN7rocksdb5SliceENS4_13SetComparatorESaIS5_EEEEED2Ev(ptr noundef nonnull align 8 dereferenceable(48) %6) #4
  ret void

7:                                                ; preds = %1
  %8 = landingpad { ptr, i32 }
          catch ptr null
  %9 = extractvalue { ptr, i32 } %8, 0
  call void @__clang_call_terminate(ptr %9) #22
  unreachable
}

; Function Attrs: mustprogress nounwind uwtable
define linkonce_odr void @_ZNSt14_Function_baseD2Ev(ptr noundef nonnull align 8 dereferenceable(24) %0) unnamed_addr #3 comdat align 2 personality ptr @__gxx_personality_v0 {
  %2 = alloca ptr, align 8
  store ptr %0, ptr %2, align 8, !tbaa !473
  %3 = load ptr, ptr %2, align 8
  %4 = getelementptr inbounds nuw %"class.std::_Function_base", ptr %3, i32 0, i32 1
  %5 = load ptr, ptr %4, align 8, !tbaa !472
  %6 = icmp ne ptr %5, null
  br i1 %6, label %7, label %14

7:                                                ; preds = %1
  %8 = getelementptr inbounds nuw %"class.std::_Function_base", ptr %3, i32 0, i32 1
  %9 = load ptr, ptr %8, align 8, !tbaa !472
  %10 = getelementptr inbounds nuw %"class.std::_Function_base", ptr %3, i32 0, i32 0
  %11 = getelementptr inbounds nuw %"class.std::_Function_base", ptr %3, i32 0, i32 0
  %12 = invoke noundef zeroext i1 %9(ptr noundef nonnull align 8 dereferenceable(16) %10, ptr noundef nonnull align 8 dereferenceable(16) %11, i32 noundef 3)
          to label %13 unwind label %15

13:                                               ; preds = %7
  br label %14

14:                                               ; preds = %13, %1
  ret void

15:                                               ; preds = %7
  %16 = landingpad { ptr, i32 }
          catch ptr null
  %17 = extractvalue { ptr, i32 } %16, 0
  call void @__clang_call_terminate(ptr %17) #22
  unreachable
}

; Function Attrs: mustprogress nounwind uwtable
define linkonce_odr void @_ZN7rocksdb28WritePreparedTxnReadCallbackD2Ev(ptr noundef nonnull align 8 dereferenceable(35) %0) unnamed_addr #3 comdat align 2 {
  %2 = alloca ptr, align 8
  store ptr %0, ptr %2, align 8, !tbaa !196
  %3 = load ptr, ptr %2, align 8
  store ptr getelementptr inbounds inrange(-16, 32) ({ [6 x ptr] }, ptr @_ZTVN7rocksdb28WritePreparedTxnReadCallbackE, i32 0, i32 0, i32 2), ptr %3, align 8, !tbaa !56
  call void @_ZN7rocksdb12ReadCallbackD2Ev(ptr noundef nonnull align 8 dereferenceable(24) %3) #4
  ret void
}

; Function Attrs: mustprogress nounwind uwtable
define linkonce_odr void @_ZNSt3mapIjSt3setIN7rocksdb5SliceENS1_13SetComparatorESaIS2_EESt4lessIjESaISt4pairIKjS5_EEED2Ev(ptr noundef nonnull align 8 dereferenceable(48) %0) unnamed_addr #3 comdat align 2 {
  %2 = alloca ptr, align 8
  store ptr %0, ptr %2, align 8, !tbaa !722
  %3 = load ptr, ptr %2, align 8
  %4 = getelementptr inbounds nuw %"class.std::map.466", ptr %3, i32 0, i32 0
  call void @_ZNSt8_Rb_treeIjSt4pairIKjSt3setIN7rocksdb5SliceENS3_13SetComparatorESaIS4_EEESt10_Select1stIS8_ESt4lessIjESaIS8_EED2Ev(ptr noundef nonnull align 8 dereferenceable(48) %4) #4
  ret void
}

; Function Attrs: inlinehint mustprogress nounwind uwtable
define linkonce_odr void @_ZN7rocksdb11ReadOptionsD2Ev(ptr noundef nonnull align 8 dereferenceable(168) %0) unnamed_addr #1 comdat align 2 {
  %2 = alloca ptr, align 8
  store ptr %0, ptr %2, align 8, !tbaa !140
  %3 = load ptr, ptr %2, align 8
  %4 = getelementptr inbounds nuw %"struct.rocksdb::ReadOptions", ptr %3, i32 0, i32 26
  call void @_ZNSt14_Function_baseD2Ev(ptr noundef nonnull align 8 dereferenceable(32) %4) #4
  ret void
}

; Function Attrs: inlinehint mustprogress nounwind uwtable
define internal void @_ZZN7rocksdb16WritePreparedTxn16RollbackInternalEvEN25RollbackWriteBatchBuilderD2Ev(ptr noundef nonnull align 8 dereferenceable(312) %0) unnamed_addr #1 align 2 {
  %2 = alloca ptr, align 8
  store ptr %0, ptr %2, align 8, !tbaa !394
  %3 = load ptr, ptr %2, align 8
  store ptr getelementptr inbounds inrange(-16, 192) ({ [26 x ptr] }, ptr @_ZTVZN7rocksdb16WritePreparedTxn16RollbackInternalEvE25RollbackWriteBatchBuilder, i32 0, i32 0, i32 2), ptr %3, align 8, !tbaa !56
  %4 = getelementptr inbounds nuw %struct.RollbackWriteBatchBuilder, ptr %3, i32 0, i32 9
  call void @_ZN7rocksdb11ReadOptionsD2Ev(ptr noundef nonnull align 8 dereferenceable(168) %4) #4
  %5 = getelementptr inbounds nuw %struct.RollbackWriteBatchBuilder, ptr %3, i32 0, i32 7
  call void @_ZNSt3mapIjSt3setIN7rocksdb5SliceENS1_13SetComparatorESaIS2_EESt4lessIjESaISt4pairIKjS5_EEED2Ev(ptr noundef nonnull align 8 dereferenceable(48) %5) #4
  %6 = getelementptr inbounds nuw %struct.RollbackWriteBatchBuilder, ptr %3, i32 0, i32 3
  call void @_ZN7rocksdb28WritePreparedTxnReadCallbackD2Ev(ptr noundef nonnull align 8 dereferenceable(35) %6) #4
  call void @_ZN7rocksdb10WriteBatch7HandlerD2Ev(ptr noundef nonnull align 8 dereferenceable(8) %3) #4
  ret void
}

; Function Attrs: inlinehint mustprogress nounwind uwtable
define internal void @_ZZN7rocksdb16WritePreparedTxn16RollbackInternalEvEN25RollbackWriteBatchBuilderD0Ev(ptr noundef nonnull align 8 dereferenceable(312) %0) unnamed_addr #1 align 2 {
  %2 = alloca ptr, align 8
  store ptr %0, ptr %2, align 8, !tbaa !394
  %3 = load ptr, ptr %2, align 8
  call void @_ZZN7rocksdb16WritePreparedTxn16RollbackInternalEvEN25RollbackWriteBatchBuilderD2Ev(ptr noundef nonnull align 8 dereferenceable(312) %3) #4
  call void @_ZdlPvm(ptr noundef %3, i64 noundef 312) #25
  ret void
}